target datalayout = "e-m:e-p270:32:32-p271:32:32-p272:64:64-i64:64-i128:128-f80:128-n8:16:32:64-S128"
target triple = "x86_64-pc-linux-gnu"

%union.LWLockPadded = type { %struct.LWLock, [112 x i8] }
%struct.LWLock = type { i16, %struct.pg_atomic_uint32, %struct.proclist_head }
%struct.pg_atomic_uint32 = type { i32 }
%struct.proclist_head = type { i32, i32 }
%struct.MultiXactStateData = type { i32, i32, i8, i32, i32, i32, i8, i32, i32, i32, i32, i32, %struct.ConditionVariable, [0 x i32] }
%struct.ConditionVariable = type { i8, %struct.proclist_head }

@MainLWLockArray = external global ptr, align 8
@MultiXactState = internal global ptr null, align 8

; Function Attrs: nounwind uwtable
define dso_local void @MultiXactGetCheckptMulti(i1 noundef zeroext %0, ptr noundef %1, ptr noundef %2, ptr noundef %3, ptr noundef %4) #0 {
  %6 = alloca i8, align 1
  %7 = alloca ptr, align 8
  %8 = alloca ptr, align 8
  %9 = alloca ptr, align 8
  %10 = alloca ptr, align 8
  %11 = zext i1 %0 to i8
  store i8 %11, ptr %6, align 1
  store ptr %1, ptr %7, align 8
  store ptr %2, ptr %8, align 8
  store ptr %3, ptr %9, align 8
  store ptr %4, ptr %10, align 8
  %12 = load ptr, ptr @MainLWLockArray, align 8
  %13 = getelementptr inbounds %union.LWLockPadded, ptr %12, i64 13
  %14 = call zeroext i1 @LWLockAcquire(ptr noundef %13, i32 noundef 1)
  %15 = load ptr, ptr @MultiXactState, align 8
  %16 = getelementptr inbounds nuw %struct.MultiXactStateData, ptr %15, i32 0, i32 0
  %17 = load i32, ptr %16, align 4
  %18 = load ptr, ptr %7, align 8
  store i32 %17, ptr %18, align 4
  %19 = load ptr, ptr @MultiXactState, align 8
  %20 = getelementptr inbounds nuw %struct.MultiXactStateData, ptr %19, i32 0, i32 1
  %21 = load i32, ptr %20, align 4
  %22 = load ptr, ptr %8, align 8
  store i32 %21, ptr %22, align 4
  %23 = load ptr, ptr @MultiXactState, align 8
  %24 = getelementptr inbounds nuw %struct.MultiXactStateData, ptr %23, i32 0, i32 3
  %25 = load i32, ptr %24, align 4
  %26 = load ptr, ptr %9, align 8
  store i32 %25, ptr %26, align 4
  %27 = load ptr, ptr @MultiXactState, align 8
  %28 = getelementptr inbounds nuw %struct.MultiXactStateData, ptr %27, i32 0, i32 4
  %29 = load i32, ptr %28, align 4
  %30 = load ptr, ptr %10, align 8
  store i32 %29, ptr %30, align 4
  %31 = load ptr, ptr @MainLWLockArray, align 8
  %32 = getelementptr inbounds %union.LWLockPadded, ptr %31, i64 13
  call void @LWLockRelease(ptr noundef %32)
  ret void
}