; Function Attrs: nounwind uwtable
define dso_local void @MultiXactGetCheckptMulti(i1 noundef zeroext %0, ptr noundef writeonly captures(none) initializes((0, 4)) %1, ptr noundef writeonly captures(none) initializes((0, 4)) %2, ptr noundef writeonly captures(none) initializes((0, 4)) %3, ptr noundef writeonly captures(none) initializes((0, 4)) %4) local_unnamed_addr #0 {
  %6 = load ptr, ptr @MainLWLockArray, align 8
  %7 = getelementptr inbounds nuw i8, ptr %6, i64 1664
  %8 = tail call zeroext i1 @LWLockAcquire(ptr noundef nonnull %7, i32 noundef 1) #13
  %9 = load ptr, ptr @MultiXactState, align 8
  %10 = load i32, ptr %9, align 4
  store i32 %10, ptr %1, align 4
  %11 = getelementptr inbounds nuw i8, ptr %9, i64 4
  %12 = load i32, ptr %11, align 4
  store i32 %12, ptr %2, align 4
  %13 = getelementptr inbounds nuw i8, ptr %9, i64 12
  %14 = load i32, ptr %13, align 4
  store i32 %14, ptr %3, align 4
  %15 = getelementptr inbounds nuw i8, ptr %9, i64 16
  %16 = load i32, ptr %15, align 4
  store i32 %16, ptr %4, align 4
  %17 = load ptr, ptr @MainLWLockArray, align 8
  %18 = getelementptr inbounds nuw i8, ptr %17, i64 1664
  tail call void @LWLockRelease(ptr noundef nonnull %18) #13
  ret void
}